target datalayout = "e-m:e-p270:32:32-p271:32:32-p272:64:64-i64:64-i128:128-f80:128-n8:16:32:64-S128"
target triple = "x86_64-pc-linux-gnu"

@.str = private unnamed_addr constant [33 x i8] c"Unknown pointer format: 0x{:04x}\00", align 1

; Function Attrs: mustprogress nounwind uwtable
define hidden noundef zeroext i1 @_ZNK4LIEF5MachO7details13chained_fixup9is_rebaseEt(ptr noundef nonnull align 8 dereferenceable(8) %0, i16 noundef zeroext %1) #1 align 2 {
  %3 = alloca i1, align 1
  %4 = alloca ptr, align 8
  %5 = alloca i16, align 2
  %6 = alloca i32, align 4
  %7 = alloca i32, align 4
  store ptr %0, ptr %4, align 8, !tbaa !29
  store i16 %1, ptr %5, align 2, !tbaa !31
  %8 = load ptr, ptr %4, align 8
  call void @llvm.lifetime.start.p0(i64 4, ptr %6) #19
  %9 = load i16, ptr %5, align 2, !tbaa !31
  %10 = zext i16 %9 to i32
  store i32 %10, ptr %6, align 4, !tbaa !33
  %11 = load i32, ptr %6, align 4, !tbaa !33
  switch i32 %11, label %37 [
    i32 1, label %12
    i32 7, label %12
    i32 9, label %12
    i32 12, label %12
    i32 10, label %12
    i32 2, label %26
    i32 6, label %26
    i32 3, label %31
    i32 8, label %35
    i32 11, label %35
    i32 5, label %36
  ]

12:                                               ; preds = %2, %2, %2, %2, %2
  %13 = load i64, ptr %8, align 8
  %14 = lshr i64 %13, 62
  %15 = and i64 %14, 1
  %16 = trunc i64 %15 to i32
  %17 = icmp sgt i32 %16, 0
  br i1 %17, label %18, label %19

18:                                               ; preds = %12
  store i1 false, ptr %3, align 1
  store i32 1, ptr %7, align 4
  br label %39

19:                                               ; preds = %12
  %20 = load i64, ptr %8, align 8
  %21 = lshr i64 %20, 63
  %22 = trunc i64 %21 to i32
  %23 = icmp sgt i32 %22, 0
  br i1 %23, label %24, label %25

24:                                               ; preds = %19
  store i1 true, ptr %3, align 1
  store i32 1, ptr %7, align 4
  br label %39

25:                                               ; preds = %19
  store i1 true, ptr %3, align 1
  store i32 1, ptr %7, align 4
  br label %39

26:                                               ; preds = %2, %2
  %27 = load i64, ptr %8, align 8
  %28 = lshr i64 %27, 63
  %29 = trunc i64 %28 to i32
  %30 = icmp eq i32 %29, 0
  store i1 %30, ptr %3, align 1
  store i32 1, ptr %7, align 4
  br label %39

31:                                               ; preds = %2
  %32 = load i32, ptr %8, align 8
  %33 = lshr i32 %32, 31
  %34 = icmp eq i32 %33, 0
  store i1 %34, ptr %3, align 1
  store i32 1, ptr %7, align 4
  br label %39

35:                                               ; preds = %2, %2
  store i1 true, ptr %3, align 1
  store i32 1, ptr %7, align 4
  br label %39

36:                                               ; preds = %2
  store i1 true, ptr %3, align 1
  store i32 1, ptr %7, align 4
  br label %39

37:                                               ; preds = %2
  %38 = call noundef nonnull align 8 dereferenceable(16) ptr @_ZN4LIEF7logging6Logger8instanceEv()
  call void @_ZN4LIEF7logging6Logger3errIJtEEEvPKcDpRKT_(ptr noundef nonnull align 8 dereferenceable(16) %38, ptr noundef @.str, ptr noundef nonnull align 2 dereferenceable(2) %5)
  call void @abort() #20
  unreachable

39:                                               ; preds = %36, %35, %31, %26, %25, %24, %18
  call void @llvm.lifetime.end.p0(i64 4, ptr %6) #19
  %40 = load i1, ptr %3, align 1
  ret i1 %40
}