; Function Attrs: mustprogress nounwind uwtable
define hidden noundef zeroext i1 @_ZNK4LIEF5MachO7details13chained_fixup9is_rebaseEt(ptr noundef nonnull readonly align 8 captures(none) dereferenceable(8) %0, i16 noundef zeroext %1) local_unnamed_addr #3 align 2 {
  %3 = alloca i16, align 2
  store i16 %1, ptr %3, align 2, !tbaa !3
  switch i16 %1, label %13 [
    i16 1, label %4
    i16 7, label %4
    i16 9, label %4
    i16 12, label %4
    i16 10, label %4
    i16 2, label %7
    i16 6, label %7
    i16 3, label %10
    i16 8, label %15
    i16 11, label %15
    i16 5, label %15
  ]

4:                                                ; preds = %2, %2, %2, %2, %2
  %5 = load i64, ptr %0, align 8
  %6 = and i64 %5, 4611686018427387904
  %.not = icmp eq i64 %6, 0
  br label %15

7:                                                ; preds = %2, %2
  %8 = load i64, ptr %0, align 8
  %9 = icmp sgt i64 %8, -1
  br label %15

10:                                               ; preds = %2
  %11 = load i32, ptr %0, align 8
  %12 = icmp sgt i32 %11, -1
  br label %15

13:                                               ; preds = %2
  %14 = tail call noundef nonnull align 8 dereferenceable(16) ptr @_ZN4LIEF7logging6Logger8instanceEv()
  call void @_ZN4LIEF7logging6Logger3errIJtEEEvPKcDpRKT_(ptr noundef nonnull align 8 dereferenceable(16) %14, ptr noundef nonnull @.str, ptr noundef nonnull align 2 dereferenceable(2) %3)
  call void @abort() #23
  unreachable

15:                                               ; preds = %2, %2, %2, %4, %10, %7
  %.0 = phi i1 [ %12, %10 ], [ %9, %7 ], [ %.not, %4 ], [ true, %2 ], [ true, %2 ], [ true, %2 ]
  ret i1 %.0
}